target datalayout = "e-m:e-p270:32:32-p271:32:32-p272:64:64-i64:64-i128:128-f80:128-n8:16:32:64-S128"
target triple = "x86_64-pc-linux-gnu"

%struct.LimitState = type { %struct.PlanState, ptr, ptr, i32, i64, i64, i8, i32, i64, ptr, ptr, ptr }
%struct.PlanState = type { i32, ptr, ptr, ptr, ptr, ptr, ptr, ptr, ptr, ptr, ptr, ptr, ptr, ptr, ptr, ptr, ptr, ptr, i8, ptr, ptr, ptr, ptr, ptr, i8, i8, i8, i8, i8, i8, i8, i8 }
%struct.Plan = type { i32, i32, double, double, double, i32, i8, i8, i8, i32, ptr, ptr, ptr, ptr, ptr, ptr, ptr }
%struct.Limit = type { %struct.Plan, ptr, ptr, i32, i32, ptr, ptr, ptr }
%struct.Node = type { i32 }

; Function Attrs: inlinehint nounwind uwtable
define internal ptr @newNode(i64 noundef %0, i32 noundef %1) #2 {
  %3 = alloca i64, align 8
  %4 = alloca i32, align 4
  %5 = alloca ptr, align 8
  store i64 %0, ptr %3, align 8
  store i32 %1, ptr %4, align 4
  call void @llvm.lifetime.start.p0(i64 8, ptr %5) #6
  %6 = load i64, ptr %3, align 8
  %7 = call ptr @palloc0(i64 noundef %6)
  store ptr %7, ptr %5, align 8
  %8 = load i32, ptr %4, align 4
  %9 = load ptr, ptr %5, align 8
  %10 = getelementptr inbounds nuw %struct.Node, ptr %9, i32 0, i32 0
  store i32 %8, ptr %10, align 4
  %11 = load ptr, ptr %5, align 8
  call void @llvm.lifetime.end.p0(i64 8, ptr %5) #6
  ret ptr %11
}

; Function Attrs: nounwind uwtable
define dso_local ptr @ExecInitLimit(ptr noundef %0, ptr noundef %1, i32 noundef %2) #0 {
  %4 = alloca ptr, align 8
  %5 = alloca ptr, align 8
  %6 = alloca i32, align 4
  %7 = alloca ptr, align 8
  %8 = alloca ptr, align 8
  %9 = alloca ptr, align 8
  %10 = alloca ptr, align 8
  store ptr %0, ptr %4, align 8
  store ptr %1, ptr %5, align 8
  store i32 %2, ptr %6, align 4
  call void @llvm.lifetime.start.p0(i64 8, ptr %7) #6
  call void @llvm.lifetime.start.p0(i64 8, ptr %8) #6
  %11 = call ptr @newNode(i64 noundef 280, i32 noundef 436)
  store ptr %11, ptr %7, align 8
  %12 = load ptr, ptr %4, align 8
  %13 = load ptr, ptr %7, align 8
  %14 = getelementptr inbounds nuw %struct.LimitState, ptr %13, i32 0, i32 0
  %15 = getelementptr inbounds nuw %struct.PlanState, ptr %14, i32 0, i32 1
  store ptr %12, ptr %15, align 8
  %16 = load ptr, ptr %5, align 8
  %17 = load ptr, ptr %7, align 8
  %18 = getelementptr inbounds nuw %struct.LimitState, ptr %17, i32 0, i32 0
  %19 = getelementptr inbounds nuw %struct.PlanState, ptr %18, i32 0, i32 2
  store ptr %16, ptr %19, align 8
  %20 = load ptr, ptr %7, align 8
  %21 = getelementptr inbounds nuw %struct.LimitState, ptr %20, i32 0, i32 0
  %22 = getelementptr inbounds nuw %struct.PlanState, ptr %21, i32 0, i32 3
  store ptr @ExecLimit, ptr %22, align 8
  %23 = load ptr, ptr %7, align 8
  %24 = getelementptr inbounds nuw %struct.LimitState, ptr %23, i32 0, i32 7
  store i32 0, ptr %24, align 4
  %25 = load ptr, ptr %5, align 8
  %26 = load ptr, ptr %7, align 8
  %27 = getelementptr inbounds nuw %struct.LimitState, ptr %26, i32 0, i32 0
  call void @ExecAssignExprContext(ptr noundef %25, ptr noundef %27)
  %28 = load ptr, ptr %4, align 8
  %29 = getelementptr inbounds nuw %struct.Plan, ptr %28, i32 0, i32 12
  %30 = load ptr, ptr %29, align 8
  store ptr %30, ptr %8, align 8
  %31 = load ptr, ptr %8, align 8
  %32 = load ptr, ptr %5, align 8
  %33 = load i32, ptr %6, align 4
  %34 = call ptr @ExecInitNode(ptr noundef %31, ptr noundef %32, i32 noundef %33)
  %35 = load ptr, ptr %7, align 8
  %36 = getelementptr inbounds nuw %struct.PlanState, ptr %35, i32 0, i32 9
  store ptr %34, ptr %36, align 8
  %37 = load ptr, ptr %4, align 8
  %38 = getelementptr inbounds nuw %struct.Limit, ptr %37, i32 0, i32 1
  %39 = load ptr, ptr %38, align 8
  %40 = load ptr, ptr %7, align 8
  %41 = call ptr @ExecInitExpr(ptr noundef %39, ptr noundef %40)
  %42 = load ptr, ptr %7, align 8
  %43 = getelementptr inbounds nuw %struct.LimitState, ptr %42, i32 0, i32 1
  store ptr %41, ptr %43, align 8
  %44 = load ptr, ptr %4, align 8
  %45 = getelementptr inbounds nuw %struct.Limit, ptr %44, i32 0, i32 2
  %46 = load ptr, ptr %45, align 8
  %47 = load ptr, ptr %7, align 8
  %48 = call ptr @ExecInitExpr(ptr noundef %46, ptr noundef %47)
  %49 = load ptr, ptr %7, align 8
  %50 = getelementptr inbounds nuw %struct.LimitState, ptr %49, i32 0, i32 2
  store ptr %48, ptr %50, align 8
  %51 = load ptr, ptr %4, align 8
  %52 = getelementptr inbounds nuw %struct.Limit, ptr %51, i32 0, i32 3
  %53 = load i32, ptr %52, align 8
  %54 = load ptr, ptr %7, align 8
  %55 = getelementptr inbounds nuw %struct.LimitState, ptr %54, i32 0, i32 3
  store i32 %53, ptr %55, align 8
  %56 = load ptr, ptr %7, align 8
  %57 = getelementptr inbounds nuw %struct.LimitState, ptr %56, i32 0, i32 0
  call void @ExecInitResultTypeTL(ptr noundef %57)
  %58 = load ptr, ptr %7, align 8
  %59 = getelementptr inbounds nuw %struct.LimitState, ptr %58, i32 0, i32 0
  %60 = getelementptr inbounds nuw %struct.PlanState, ptr %59, i32 0, i32 31
  store i8 1, ptr %60, align 1
  %61 = load ptr, ptr %7, align 8
  %62 = getelementptr inbounds nuw %struct.PlanState, ptr %61, i32 0, i32 9
  %63 = load ptr, ptr %62, align 8
  %64 = load ptr, ptr %7, align 8
  %65 = getelementptr inbounds nuw %struct.LimitState, ptr %64, i32 0, i32 0
  %66 = getelementptr inbounds nuw %struct.PlanState, ptr %65, i32 0, i32 27
  %67 = call ptr @ExecGetResultSlotOps(ptr noundef %63, ptr noundef %66)
  %68 = load ptr, ptr %7, align 8
  %69 = getelementptr inbounds nuw %struct.LimitState, ptr %68, i32 0, i32 0
  %70 = getelementptr inbounds nuw %struct.PlanState, ptr %69, i32 0, i32 23
  store ptr %67, ptr %70, align 8
  %71 = load ptr, ptr %7, align 8
  %72 = getelementptr inbounds nuw %struct.LimitState, ptr %71, i32 0, i32 0
  %73 = getelementptr inbounds nuw %struct.PlanState, ptr %72, i32 0, i32 17
  store ptr null, ptr %73, align 8
  %74 = load ptr, ptr %4, align 8
  %75 = getelementptr inbounds nuw %struct.Limit, ptr %74, i32 0, i32 3
  %76 = load i32, ptr %75, align 8
  %77 = icmp eq i32 %76, 1
  br i1 %77, label %78, label %111

78:                                               ; preds = %3
  call void @llvm.lifetime.start.p0(i64 8, ptr %9) #6
  call void @llvm.lifetime.start.p0(i64 8, ptr %10) #6
  %79 = load ptr, ptr %7, align 8
  %80 = getelementptr inbounds nuw %struct.PlanState, ptr %79, i32 0, i32 9
  %81 = load ptr, ptr %80, align 8
  %82 = call ptr @ExecGetResultType(ptr noundef %81)
  store ptr %82, ptr %9, align 8
  %83 = load ptr, ptr %7, align 8
  %84 = getelementptr inbounds nuw %struct.PlanState, ptr %83, i32 0, i32 9
  %85 = load ptr, ptr %84, align 8
  %86 = call ptr @ExecGetResultSlotOps(ptr noundef %85, ptr noundef null)
  store ptr %86, ptr %10, align 8
  %87 = load ptr, ptr %5, align 8
  %88 = load ptr, ptr %9, align 8
  %89 = load ptr, ptr %10, align 8
  %90 = call ptr @ExecInitExtraTupleSlot(ptr noundef %87, ptr noundef %88, ptr noundef %89)
  %91 = load ptr, ptr %7, align 8
  %92 = getelementptr inbounds nuw %struct.LimitState, ptr %91, i32 0, i32 11
  store ptr %90, ptr %92, align 8
  %93 = load ptr, ptr %9, align 8
  %94 = load ptr, ptr %4, align 8
  %95 = getelementptr inbounds nuw %struct.Limit, ptr %94, i32 0, i32 4
  %96 = load i32, ptr %95, align 4
  %97 = load ptr, ptr %4, align 8
  %98 = getelementptr inbounds nuw %struct.Limit, ptr %97, i32 0, i32 5
  %99 = load ptr, ptr %98, align 8
  %100 = load ptr, ptr %4, align 8
  %101 = getelementptr inbounds nuw %struct.Limit, ptr %100, i32 0, i32 6
  %102 = load ptr, ptr %101, align 8
  %103 = load ptr, ptr %4, align 8
  %104 = getelementptr inbounds nuw %struct.Limit, ptr %103, i32 0, i32 7
  %105 = load ptr, ptr %104, align 8
  %106 = load ptr, ptr %7, align 8
  %107 = getelementptr inbounds nuw %struct.LimitState, ptr %106, i32 0, i32 0
  %108 = call ptr @execTuplesMatchPrepare(ptr noundef %93, i32 noundef %96, ptr noundef %99, ptr noundef %102, ptr noundef %105, ptr noundef %107)
  %109 = load ptr, ptr %7, align 8
  %110 = getelementptr inbounds nuw %struct.LimitState, ptr %109, i32 0, i32 10
  store ptr %108, ptr %110, align 8
  call void @llvm.lifetime.end.p0(i64 8, ptr %10) #6
  call void @llvm.lifetime.end.p0(i64 8, ptr %9) #6
  br label %111

111:                                              ; preds = %78, %3
  %112 = load ptr, ptr %7, align 8
  call void @llvm.lifetime.end.p0(i64 8, ptr %8) #6
  call void @llvm.lifetime.end.p0(i64 8, ptr %7) #6
  ret ptr %112
}