; Function Attrs: nounwind uwtable
define dso_local noundef ptr @ExecInitLimit(ptr noundef %0, ptr noundef %1, i32 noundef %2) local_unnamed_addr #0 {
  %4 = tail call noundef ptr @palloc0(i64 noundef 280) #6
  store i32 436, ptr %4, align 4
  %5 = getelementptr inbounds nuw i8, ptr %4, i64 8
  store ptr %0, ptr %5, align 8
  %6 = getelementptr inbounds nuw i8, ptr %4, i64 16
  store ptr %1, ptr %6, align 8
  %7 = getelementptr inbounds nuw i8, ptr %4, i64 24
  store ptr @ExecLimit, ptr %7, align 8
  %8 = getelementptr inbounds nuw i8, ptr %4, i64 244
  store i32 0, ptr %8, align 4
  tail call void @ExecAssignExprContext(ptr noundef %1, ptr noundef %4) #6
  %9 = getelementptr inbounds nuw i8, ptr %0, i64 64
  %10 = load ptr, ptr %9, align 8
  %11 = tail call ptr @ExecInitNode(ptr noundef %10, ptr noundef %1, i32 noundef %2) #6
  %12 = getelementptr inbounds nuw i8, ptr %4, i64 72
  store ptr %11, ptr %12, align 8
  %13 = getelementptr inbounds nuw i8, ptr %0, i64 104
  %14 = load ptr, ptr %13, align 8
  %15 = tail call ptr @ExecInitExpr(ptr noundef %14, ptr noundef %4) #6
  %16 = getelementptr inbounds nuw i8, ptr %4, i64 200
  store ptr %15, ptr %16, align 8
  %17 = getelementptr inbounds nuw i8, ptr %0, i64 112
  %18 = load ptr, ptr %17, align 8
  %19 = tail call ptr @ExecInitExpr(ptr noundef %18, ptr noundef %4) #6
  %20 = getelementptr inbounds nuw i8, ptr %4, i64 208
  store ptr %19, ptr %20, align 8
  %21 = getelementptr inbounds nuw i8, ptr %0, i64 120
  %22 = load i32, ptr %21, align 8
  %23 = getelementptr inbounds nuw i8, ptr %4, i64 216
  store i32 %22, ptr %23, align 8
  tail call void @ExecInitResultTypeTL(ptr noundef %4) #6
  %24 = getelementptr inbounds nuw i8, ptr %4, i64 199
  store i8 1, ptr %24, align 1
  %25 = load ptr, ptr %12, align 8
  %26 = getelementptr inbounds nuw i8, ptr %4, i64 195
  %27 = tail call ptr @ExecGetResultSlotOps(ptr noundef %25, ptr noundef nonnull %26) #6
  %28 = getelementptr inbounds nuw i8, ptr %4, i64 184
  store ptr %27, ptr %28, align 8
  %29 = getelementptr inbounds nuw i8, ptr %4, i64 136
  store ptr null, ptr %29, align 8
  %30 = load i32, ptr %21, align 8
  %31 = icmp eq i32 %30, 1
  br i1 %31, label %32, label %49

32:                                               ; preds = %3
  %33 = load ptr, ptr %12, align 8
  %34 = tail call ptr @ExecGetResultType(ptr noundef %33) #6
  %35 = load ptr, ptr %12, align 8
  %36 = tail call ptr @ExecGetResultSlotOps(ptr noundef %35, ptr noundef null) #6
  %37 = tail call ptr @ExecInitExtraTupleSlot(ptr noundef %1, ptr noundef %34, ptr noundef %36) #6
  %38 = getelementptr inbounds nuw i8, ptr %4, i64 272
  store ptr %37, ptr %38, align 8
  %39 = getelementptr inbounds nuw i8, ptr %0, i64 124
  %40 = load i32, ptr %39, align 4
  %41 = getelementptr inbounds nuw i8, ptr %0, i64 128
  %42 = load ptr, ptr %41, align 8
  %43 = getelementptr inbounds nuw i8, ptr %0, i64 136
  %44 = load ptr, ptr %43, align 8
  %45 = getelementptr inbounds nuw i8, ptr %0, i64 144
  %46 = load ptr, ptr %45, align 8
  %47 = tail call ptr @execTuplesMatchPrepare(ptr noundef %34, i32 noundef %40, ptr noundef %42, ptr noundef %44, ptr noundef %46, ptr noundef nonnull %4) #6
  %48 = getelementptr inbounds nuw i8, ptr %4, i64 264
  store ptr %47, ptr %48, align 8
  br label %49

49:                                               ; preds = %32, %3
  ret ptr %4
}